target datalayout = "e-m:e-p270:32:32-p271:32:32-p272:64:64-i64:64-i128:128-f80:128-n8:16:32:64-S128"
target triple = "x86_64-unknown-linux-gnu"

%struct.MemoryRegionOps = type { ptr, ptr, ptr, ptr, i32, %struct.anon.13, %struct.anon.14 }
%struct.anon.13 = type { i32, i32, i8, ptr }
%struct.anon.14 = type { i32, i32, i8 }
%struct.VFIOVGARegion = type { %struct.MemoryRegion, i64, i32, %struct.anon }
%struct.MemoryRegion = type { %struct.Object, i8, i8, i8, i8, i8, i8, i8, i8, i8, i8, ptr, ptr, ptr, ptr, ptr, ptr, i32, i128, i64, ptr, i64, i8, i8, i8, i8, i8, ptr, i64, i32, %union.anon, %union.anon.0, %union.anon.1, ptr, i32, ptr, ptr, i8 }
%struct.Object = type { ptr, ptr, ptr, i32, ptr }
%union.anon = type { %struct.QTailQLink }
%struct.QTailQLink = type { ptr, ptr }
%union.anon.0 = type { %struct.QTailQLink }
%union.anon.1 = type { %struct.QTailQLink }
%struct.anon = type { ptr }
%struct.VFIOVGA = type { i64, i32, [3 x %struct.VFIOVGARegion] }
%struct.VFIOPCIDevice = type { %struct.PCIDevice, %struct.VFIODevice, %struct.VFIOINTx, i32, ptr, i64, i32, i64, ptr, i32, ptr, ptr, i32, i32, [6 x %struct.VFIOBAR], ptr, ptr, %struct.PCIHostDeviceAddress, %struct.QemuUUID, %struct.EventNotifier, %struct.EventNotifier, ptr, i32, i32, i32, i32, i32, i32, i32, i32, i32, i32, i32, i8, i8, i8, i8, i8, i8, i8, i8, i8, i8, i8, i8, i8, i8, i32, i8, i8, ptr, %struct.Notifier }
%struct.PCIDevice = type { %struct.DeviceState, i8, i8, ptr, ptr, ptr, ptr, ptr, i32, %struct.PCIReqIDCache, [64 x i8], [7 x %struct.PCIIORegion], %struct.AddressSpace, %struct.MemoryRegion, %struct.MemoryRegion, ptr, ptr, [3 x ptr], i8, i8, i32, i8, i32, ptr, ptr, ptr, ptr, ptr, ptr, %struct.MemoryRegion, %struct.MemoryRegion, %struct.MemoryRegion, ptr, i8, i32, i8, %struct.PCIExpressDevice, ptr, ptr, i32, i8, %struct.MemoryRegion, i32, ptr, ptr, ptr, ptr, ptr, i32 }
%struct.DeviceState = type { %struct.Object, ptr, ptr, i8, i8, i64, ptr, i32, i8, ptr, %struct.NamedGPIOListHead, %struct.NamedClockListHead, %struct.BusStateHead, i32, i32, i32, %struct.ResettableState, ptr, %struct.MemReentrancyGuard }
%struct.NamedGPIOListHead = type { ptr }
%struct.NamedClockListHead = type { ptr }
%struct.BusStateHead = type { ptr }
%struct.ResettableState = type { i32, i8, i8 }
%struct.MemReentrancyGuard = type { i8 }
%struct.PCIReqIDCache = type { ptr, i32 }
%struct.PCIIORegion = type { i64, i64, i8, ptr, ptr }
%struct.AddressSpace = type { %struct.rcu_head, ptr, ptr, ptr, i32, i32, ptr, %union.anon.4, %union.anon.5 }
%struct.rcu_head = type { ptr, ptr }
%union.anon.4 = type { %struct.QTailQLink }
%union.anon.5 = type { %struct.QTailQLink }
%struct.PCIExpressDevice = type { i8, i8, i8, i16, %struct.PCIEAERLog, i16, i16, i16, %struct.PCIESriovPF, %struct.PCIESriovVF }
%struct.PCIEAERLog = type { i16, i16, ptr }
%struct.PCIESriovPF = type { i16, [7 x i8], ptr, ptr }
%struct.PCIESriovVF = type { ptr, i16 }
%struct.VFIODevice = type { %struct.anon.6, %struct.anon.7, %struct.anon.8, ptr, ptr, ptr, ptr, ptr, i32, i32, i8, i8, i8, i8, i32, ptr, i32, i32, i32, ptr, ptr, i32, i8, i8 }
%struct.anon.6 = type { ptr, ptr }
%struct.anon.7 = type { ptr, ptr }
%struct.anon.8 = type { ptr, ptr }
%struct.VFIOINTx = type { i8, i8, i8, %struct.EventNotifier, %struct.EventNotifier, %struct.PCIINTxRoute, i32, ptr }
%struct.PCIINTxRoute = type { i32, i32 }
%struct.VFIOBAR = type { %struct.VFIORegion, ptr, i64, i8, i8, i8, %struct.anon.9 }
%struct.VFIORegion = type { ptr, i64, ptr, i64, i32, i32, ptr, i8 }
%struct.anon.9 = type { ptr }
%struct.PCIHostDeviceAddress = type { i32, i32, i32, i32 }
%struct.QemuUUID = type { %union.anon.10 }
%union.anon.10 = type { %struct.anon.11 }
%struct.anon.11 = type { i32, i16, i16, i8, i8, [6 x i8] }
%struct.EventNotifier = type { i32, i32, i8 }
%struct.Notifier = type { ptr, %struct.anon.12 }
%struct.anon.12 = type { ptr, ptr }
%struct.vfio_region_info = type { i32, i32, i32, i32, i64, i64 }

@.str.12 = private unnamed_addr constant [22 x i8] c"../qemu/hw/vfio/pci.c\00", align 1
@__func__.vfio_populate_vga = private unnamed_addr constant [18 x i8] c"vfio_populate_vga\00", align 1
@.str.13 = private unnamed_addr constant [51 x i8] c"failed getting region info for VGA region index %d\00", align 1
@.str.14 = private unnamed_addr constant [45 x i8] c"unexpected VGA info, flags 0x%lx, size 0x%lx\00", align 1
@vfio_vga_ops = internal constant %struct.MemoryRegionOps { ptr @vfio_vga_read, ptr @vfio_vga_write, ptr null, ptr null, i32 2, %struct.anon.13 zeroinitializer, %struct.anon.14 zeroinitializer }, align 8
@.str.15 = private unnamed_addr constant [22 x i8] c"vfio-vga-mmio@0xa0000\00", align 1
@.str.16 = private unnamed_addr constant [18 x i8] c"vfio-vga-io@0x3b0\00", align 1
@.str.17 = private unnamed_addr constant [18 x i8] c"vfio-vga-io@0x3c0\00", align 1

; Function Attrs: nounwind sspstrong uwtable
define dso_local i32 @vfio_populate_vga(ptr noundef %vdev, ptr noundef %errp) #0 {
entry:
  %retval = alloca i32, align 4
  %vdev.addr = alloca ptr, align 8
  %errp.addr = alloca ptr, align 8
  %vbasedev = alloca ptr, align 8
  %reg_info = alloca ptr, align 8
  %ret = alloca i32, align 4
  store ptr %vdev, ptr %vdev.addr, align 8
  store ptr %errp, ptr %errp.addr, align 8
  %0 = load ptr, ptr %vdev.addr, align 8
  %vbasedev1 = getelementptr inbounds %struct.VFIOPCIDevice, ptr %0, i32 0, i32 1
  store ptr %vbasedev1, ptr %vbasedev, align 8
  %1 = load ptr, ptr %vbasedev, align 8
  %call = call i32 @vfio_get_region_info(ptr noundef %1, i32 noundef 8, ptr noundef %reg_info)
  store i32 %call, ptr %ret, align 4
  %2 = load i32, ptr %ret, align 4
  %tobool = icmp ne i32 %2, 0
  br i1 %tobool, label %if.then, label %if.end

if.then:                                          ; preds = %entry
  %3 = load ptr, ptr %errp.addr, align 8
  %4 = load i32, ptr %ret, align 4
  %sub = sub i32 0, %4
  call void (ptr, ptr, i32, ptr, i32, ptr, ...) @error_setg_errno_internal(ptr noundef %3, ptr noundef @.str.12, i32 noundef 2786, ptr noundef @__func__.vfio_populate_vga, i32 noundef %sub, ptr noundef @.str.13, i32 noundef 8)
  %5 = load i32, ptr %ret, align 4
  store i32 %5, ptr %retval, align 4
  br label %return

if.end:                                           ; preds = %entry
  %6 = load ptr, ptr %reg_info, align 8
  %flags = getelementptr inbounds %struct.vfio_region_info, ptr %6, i32 0, i32 1
  %7 = load i32, ptr %flags, align 4
  %and = and i32 %7, 1
  %tobool2 = icmp ne i32 %and, 0
  br i1 %tobool2, label %lor.lhs.false, label %if.then7

lor.lhs.false:                                    ; preds = %if.end
  %8 = load ptr, ptr %reg_info, align 8
  %flags3 = getelementptr inbounds %struct.vfio_region_info, ptr %8, i32 0, i32 1
  %9 = load i32, ptr %flags3, align 4
  %and4 = and i32 %9, 2
  %tobool5 = icmp ne i32 %and4, 0
  br i1 %tobool5, label %lor.lhs.false6, label %if.then7

lor.lhs.false6:                                   ; preds = %lor.lhs.false
  %10 = load ptr, ptr %reg_info, align 8
  %size = getelementptr inbounds %struct.vfio_region_info, ptr %10, i32 0, i32 4
  %11 = load i64, ptr %size, align 8
  %cmp = icmp ult i64 %11, 786432
  br i1 %cmp, label %if.then7, label %if.end10

if.then7:                                         ; preds = %lor.lhs.false6, %lor.lhs.false, %if.end
  %12 = load ptr, ptr %errp.addr, align 8
  %13 = load ptr, ptr %reg_info, align 8
  %flags8 = getelementptr inbounds %struct.vfio_region_info, ptr %13, i32 0, i32 1
  %14 = load i32, ptr %flags8, align 4
  %conv = zext i32 %14 to i64
  %15 = load ptr, ptr %reg_info, align 8
  %size9 = getelementptr inbounds %struct.vfio_region_info, ptr %15, i32 0, i32 4
  %16 = load i64, ptr %size9, align 8
  call void (ptr, ptr, i32, ptr, ptr, ...) @error_setg_internal(ptr noundef %12, ptr noundef @.str.12, i32 noundef 2795, ptr noundef @__func__.vfio_populate_vga, ptr noundef @.str.14, i64 noundef %conv, i64 noundef %16)
  %17 = load ptr, ptr %reg_info, align 8
  call void @g_free(ptr noundef %17)
  store i32 -22, ptr %retval, align 4
  br label %return

if.end10:                                         ; preds = %lor.lhs.false6
  %call11 = call noalias ptr @g_malloc0_n(i64 noundef 1, i64 noundef 928) #15
  %18 = load ptr, ptr %vdev.addr, align 8
  %vga = getelementptr inbounds %struct.VFIOPCIDevice, ptr %18, i32 0, i32 15
  store ptr %call11, ptr %vga, align 8
  %19 = load ptr, ptr %reg_info, align 8
  %offset = getelementptr inbounds %struct.vfio_region_info, ptr %19, i32 0, i32 5
  %20 = load i64, ptr %offset, align 8
  %21 = load ptr, ptr %vdev.addr, align 8
  %vga12 = getelementptr inbounds %struct.VFIOPCIDevice, ptr %21, i32 0, i32 15
  %22 = load ptr, ptr %vga12, align 8
  %fd_offset = getelementptr inbounds %struct.VFIOVGA, ptr %22, i32 0, i32 0
  store i64 %20, ptr %fd_offset, align 16
  %23 = load ptr, ptr %vdev.addr, align 8
  %vbasedev13 = getelementptr inbounds %struct.VFIOPCIDevice, ptr %23, i32 0, i32 1
  %fd = getelementptr inbounds %struct.VFIODevice, ptr %vbasedev13, i32 0, i32 8
  %24 = load i32, ptr %fd, align 8
  %25 = load ptr, ptr %vdev.addr, align 8
  %vga14 = getelementptr inbounds %struct.VFIOPCIDevice, ptr %25, i32 0, i32 15
  %26 = load ptr, ptr %vga14, align 8
  %fd15 = getelementptr inbounds %struct.VFIOVGA, ptr %26, i32 0, i32 1
  store i32 %24, ptr %fd15, align 8
  %27 = load ptr, ptr %reg_info, align 8
  call void @g_free(ptr noundef %27)
  %28 = load ptr, ptr %vdev.addr, align 8
  %vga16 = getelementptr inbounds %struct.VFIOPCIDevice, ptr %28, i32 0, i32 15
  %29 = load ptr, ptr %vga16, align 8
  %region = getelementptr inbounds %struct.VFIOVGA, ptr %29, i32 0, i32 2
  %arrayidx = getelementptr [3 x %struct.VFIOVGARegion], ptr %region, i64 0, i64 0
  %offset17 = getelementptr inbounds %struct.VFIOVGARegion, ptr %arrayidx, i32 0, i32 1
  store i64 655360, ptr %offset17, align 16
  %30 = load ptr, ptr %vdev.addr, align 8
  %vga18 = getelementptr inbounds %struct.VFIOPCIDevice, ptr %30, i32 0, i32 15
  %31 = load ptr, ptr %vga18, align 8
  %region19 = getelementptr inbounds %struct.VFIOVGA, ptr %31, i32 0, i32 2
  %arrayidx20 = getelementptr [3 x %struct.VFIOVGARegion], ptr %region19, i64 0, i64 0
  %nr = getelementptr inbounds %struct.VFIOVGARegion, ptr %arrayidx20, i32 0, i32 2
  store i32 0, ptr %nr, align 8
  br label %do.body

do.body:                                          ; preds = %if.end10
  %32 = load ptr, ptr %vdev.addr, align 8
  %vga21 = getelementptr inbounds %struct.VFIOPCIDevice, ptr %32, i32 0, i32 15
  %33 = load ptr, ptr %vga21, align 8
  %region22 = getelementptr inbounds %struct.VFIOVGA, ptr %33, i32 0, i32 2
  %arrayidx23 = getelementptr [3 x %struct.VFIOVGARegion], ptr %region22, i64 0, i64 0
  %quirks = getelementptr inbounds %struct.VFIOVGARegion, ptr %arrayidx23, i32 0, i32 3
  %lh_first = getelementptr inbounds %struct.anon, ptr %quirks, i32 0, i32 0
  store ptr null, ptr %lh_first, align 16
  br label %do.end

do.end:                                           ; preds = %do.body
  %34 = load ptr, ptr %vdev.addr, align 8
  %vga24 = getelementptr inbounds %struct.VFIOPCIDevice, ptr %34, i32 0, i32 15
  %35 = load ptr, ptr %vga24, align 8
  %region25 = getelementptr inbounds %struct.VFIOVGA, ptr %35, i32 0, i32 2
  %arrayidx26 = getelementptr [3 x %struct.VFIOVGARegion], ptr %region25, i64 0, i64 0
  %mem = getelementptr inbounds %struct.VFIOVGARegion, ptr %arrayidx26, i32 0, i32 0
  %36 = load ptr, ptr %vdev.addr, align 8
  %37 = load ptr, ptr %vdev.addr, align 8
  %vga27 = getelementptr inbounds %struct.VFIOPCIDevice, ptr %37, i32 0, i32 15
  %38 = load ptr, ptr %vga27, align 8
  %region28 = getelementptr inbounds %struct.VFIOVGA, ptr %38, i32 0, i32 2
  %arrayidx29 = getelementptr [3 x %struct.VFIOVGARegion], ptr %region28, i64 0, i64 0
  call void @memory_region_init_io(ptr noundef %mem, ptr noundef %36, ptr noundef @vfio_vga_ops, ptr noundef %arrayidx29, ptr noundef @.str.15, i64 noundef 131072)
  %39 = load ptr, ptr %vdev.addr, align 8
  %vga30 = getelementptr inbounds %struct.VFIOPCIDevice, ptr %39, i32 0, i32 15
  %40 = load ptr, ptr %vga30, align 8
  %region31 = getelementptr inbounds %struct.VFIOVGA, ptr %40, i32 0, i32 2
  %arrayidx32 = getelementptr [3 x %struct.VFIOVGARegion], ptr %region31, i64 0, i64 1
  %offset33 = getelementptr inbounds %struct.VFIOVGARegion, ptr %arrayidx32, i32 0, i32 1
  store i64 944, ptr %offset33, align 16
  %41 = load ptr, ptr %vdev.addr, align 8
  %vga34 = getelementptr inbounds %struct.VFIOPCIDevice, ptr %41, i32 0, i32 15
  %42 = load ptr, ptr %vga34, align 8
  %region35 = getelementptr inbounds %struct.VFIOVGA, ptr %42, i32 0, i32 2
  %arrayidx36 = getelementptr [3 x %struct.VFIOVGARegion], ptr %region35, i64 0, i64 1
  %nr37 = getelementptr inbounds %struct.VFIOVGARegion, ptr %arrayidx36, i32 0, i32 2
  store i32 1, ptr %nr37, align 8
  br label %do.body38

do.body38:                                        ; preds = %do.end
  %43 = load ptr, ptr %vdev.addr, align 8
  %vga39 = getelementptr inbounds %struct.VFIOPCIDevice, ptr %43, i32 0, i32 15
  %44 = load ptr, ptr %vga39, align 8
  %region40 = getelementptr inbounds %struct.VFIOVGA, ptr %44, i32 0, i32 2
  %arrayidx41 = getelementptr [3 x %struct.VFIOVGARegion], ptr %region40, i64 0, i64 1
  %quirks42 = getelementptr inbounds %struct.VFIOVGARegion, ptr %arrayidx41, i32 0, i32 3
  %lh_first43 = getelementptr inbounds %struct.anon, ptr %quirks42, i32 0, i32 0
  store ptr null, ptr %lh_first43, align 16
  br label %do.end44

do.end44:                                         ; preds = %do.body38
  %45 = load ptr, ptr %vdev.addr, align 8
  %vga45 = getelementptr inbounds %struct.VFIOPCIDevice, ptr %45, i32 0, i32 15
  %46 = load ptr, ptr %vga45, align 8
  %region46 = getelementptr inbounds %struct.VFIOVGA, ptr %46, i32 0, i32 2
  %arrayidx47 = getelementptr [3 x %struct.VFIOVGARegion], ptr %region46, i64 0, i64 1
  %mem48 = getelementptr inbounds %struct.VFIOVGARegion, ptr %arrayidx47, i32 0, i32 0
  %47 = load ptr, ptr %vdev.addr, align 8
  %48 = load ptr, ptr %vdev.addr, align 8
  %vga49 = getelementptr inbounds %struct.VFIOPCIDevice, ptr %48, i32 0, i32 15
  %49 = load ptr, ptr %vga49, align 8
  %region50 = getelementptr inbounds %struct.VFIOVGA, ptr %49, i32 0, i32 2
  %arrayidx51 = getelementptr [3 x %struct.VFIOVGARegion], ptr %region50, i64 0, i64 1
  call void @memory_region_init_io(ptr noundef %mem48, ptr noundef %47, ptr noundef @vfio_vga_ops, ptr noundef %arrayidx51, ptr noundef @.str.16, i64 noundef 12)
  %50 = load ptr, ptr %vdev.addr, align 8
  %vga52 = getelementptr inbounds %struct.VFIOPCIDevice, ptr %50, i32 0, i32 15
  %51 = load ptr, ptr %vga52, align 8
  %region53 = getelementptr inbounds %struct.VFIOVGA, ptr %51, i32 0, i32 2
  %arrayidx54 = getelementptr [3 x %struct.VFIOVGARegion], ptr %region53, i64 0, i64 2
  %offset55 = getelementptr inbounds %struct.VFIOVGARegion, ptr %arrayidx54, i32 0, i32 1
  store i64 960, ptr %offset55, align 16
  %52 = load ptr, ptr %vdev.addr, align 8
  %vga56 = getelementptr inbounds %struct.VFIOPCIDevice, ptr %52, i32 0, i32 15
  %53 = load ptr, ptr %vga56, align 8
  %region57 = getelementptr inbounds %struct.VFIOVGA, ptr %53, i32 0, i32 2
  %arrayidx58 = getelementptr [3 x %struct.VFIOVGARegion], ptr %region57, i64 0, i64 2
  %nr59 = getelementptr inbounds %struct.VFIOVGARegion, ptr %arrayidx58, i32 0, i32 2
  store i32 2, ptr %nr59, align 8
  br label %do.body60

do.body60:                                        ; preds = %do.end44
  %54 = load ptr, ptr %vdev.addr, align 8
  %vga61 = getelementptr inbounds %struct.VFIOPCIDevice, ptr %54, i32 0, i32 15
  %55 = load ptr, ptr %vga61, align 8
  %region62 = getelementptr inbounds %struct.VFIOVGA, ptr %55, i32 0, i32 2
  %arrayidx63 = getelementptr [3 x %struct.VFIOVGARegion], ptr %region62, i64 0, i64 2
  %quirks64 = getelementptr inbounds %struct.VFIOVGARegion, ptr %arrayidx63, i32 0, i32 3
  %lh_first65 = getelementptr inbounds %struct.anon, ptr %quirks64, i32 0, i32 0
  store ptr null, ptr %lh_first65, align 16
  br label %do.end66

do.end66:                                         ; preds = %do.body60
  %56 = load ptr, ptr %vdev.addr, align 8
  %vga67 = getelementptr inbounds %struct.VFIOPCIDevice, ptr %56, i32 0, i32 15
  %57 = load ptr, ptr %vga67, align 8
  %region68 = getelementptr inbounds %struct.VFIOVGA, ptr %57, i32 0, i32 2
  %arrayidx69 = getelementptr [3 x %struct.VFIOVGARegion], ptr %region68, i64 0, i64 2
  %mem70 = getelementptr inbounds %struct.VFIOVGARegion, ptr %arrayidx69, i32 0, i32 0
  %58 = load ptr, ptr %vdev.addr, align 8
  %59 = load ptr, ptr %vdev.addr, align 8
  %vga71 = getelementptr inbounds %struct.VFIOPCIDevice, ptr %59, i32 0, i32 15
  %60 = load ptr, ptr %vga71, align 8
  %region72 = getelementptr inbounds %struct.VFIOVGA, ptr %60, i32 0, i32 2
  %arrayidx73 = getelementptr [3 x %struct.VFIOVGARegion], ptr %region72, i64 0, i64 2
  call void @memory_region_init_io(ptr noundef %mem70, ptr noundef %58, ptr noundef @vfio_vga_ops, ptr noundef %arrayidx73, ptr noundef @.str.17, i64 noundef 32)
  %61 = load ptr, ptr %vdev.addr, align 8
  %pdev = getelementptr inbounds %struct.VFIOPCIDevice, ptr %61, i32 0, i32 0
  %62 = load ptr, ptr %vdev.addr, align 8
  %vga74 = getelementptr inbounds %struct.VFIOPCIDevice, ptr %62, i32 0, i32 15
  %63 = load ptr, ptr %vga74, align 8
  %region75 = getelementptr inbounds %struct.VFIOVGA, ptr %63, i32 0, i32 2
  %arrayidx76 = getelementptr [3 x %struct.VFIOVGARegion], ptr %region75, i64 0, i64 0
  %mem77 = getelementptr inbounds %struct.VFIOVGARegion, ptr %arrayidx76, i32 0, i32 0
  %64 = load ptr, ptr %vdev.addr, align 8
  %vga78 = getelementptr inbounds %struct.VFIOPCIDevice, ptr %64, i32 0, i32 15
  %65 = load ptr, ptr %vga78, align 8
  %region79 = getelementptr inbounds %struct.VFIOVGA, ptr %65, i32 0, i32 2
  %arrayidx80 = getelementptr [3 x %struct.VFIOVGARegion], ptr %region79, i64 0, i64 1
  %mem81 = getelementptr inbounds %struct.VFIOVGARegion, ptr %arrayidx80, i32 0, i32 0
  %66 = load ptr, ptr %vdev.addr, align 8
  %vga82 = getelementptr inbounds %struct.VFIOPCIDevice, ptr %66, i32 0, i32 15
  %67 = load ptr, ptr %vga82, align 8
  %region83 = getelementptr inbounds %struct.VFIOVGA, ptr %67, i32 0, i32 2
  %arrayidx84 = getelementptr [3 x %struct.VFIOVGARegion], ptr %region83, i64 0, i64 2
  %mem85 = getelementptr inbounds %struct.VFIOVGARegion, ptr %arrayidx84, i32 0, i32 0
  call void @pci_register_vga(ptr noundef %pdev, ptr noundef %mem77, ptr noundef %mem81, ptr noundef %mem85)
  store i32 0, ptr %retval, align 4
  br label %return

return:                                           ; preds = %do.end66, %if.then7, %if.then
  %68 = load i32, ptr %retval, align 4
  ret i32 %68
}