; Function Attrs: nounwind sspstrong uwtable
define dso_local i32 @vfio_populate_vga(ptr noundef %vdev, ptr noundef %errp) local_unnamed_addr #0 {
entry:
  %reg_info = alloca ptr, align 8
  %vbasedev1 = getelementptr inbounds nuw i8, ptr %vdev, i64 2608
  %call = call i32 @vfio_get_region_info(ptr noundef nonnull %vbasedev1, i32 noundef 8, ptr noundef nonnull %reg_info) #23
  %tobool.not = icmp eq i32 %call, 0
  br i1 %tobool.not, label %if.end, label %if.then

if.then:                                          ; preds = %entry
  %sub = sub i32 0, %call
  call void (ptr, ptr, i32, ptr, i32, ptr, ...) @error_setg_errno_internal(ptr noundef %errp, ptr noundef nonnull @.str.12, i32 noundef 2786, ptr noundef nonnull @__func__.vfio_populate_vga, i32 noundef %sub, ptr noundef nonnull @.str.13, i32 noundef 8) #23
  br label %return

if.end:                                           ; preds = %entry
  %0 = load ptr, ptr %reg_info, align 8
  %flags = getelementptr inbounds nuw i8, ptr %0, i64 4
  %1 = load i32, ptr %flags, align 4
  %2 = and i32 %1, 3
  %or.cond.not = icmp ne i32 %2, 3
  %size = getelementptr inbounds nuw i8, ptr %0, i64 16
  %3 = load i64, ptr %size, align 8
  %cmp = icmp ult i64 %3, 786432
  %or.cond = select i1 %or.cond.not, i1 true, i1 %cmp
  br i1 %or.cond, label %if.then7, label %if.end10

if.then7:                                         ; preds = %if.end
  %conv = zext i32 %1 to i64
  call void (ptr, ptr, i32, ptr, ptr, ...) @error_setg_internal(ptr noundef %errp, ptr noundef nonnull @.str.12, i32 noundef 2795, ptr noundef nonnull @__func__.vfio_populate_vga, ptr noundef nonnull @.str.14, i64 noundef %conv, i64 noundef %3) #23
  %4 = load ptr, ptr %reg_info, align 8
  call void @g_free(ptr noundef %4) #23
  br label %return

if.end10:                                         ; preds = %if.end
  %call11 = call noalias dereferenceable_or_null(928) ptr @g_malloc0_n(i64 noundef 1, i64 noundef 928) #25
  %vga = getelementptr inbounds nuw i8, ptr %vdev, i64 3416
  store ptr %call11, ptr %vga, align 8
  %5 = load ptr, ptr %reg_info, align 8
  %offset = getelementptr inbounds nuw i8, ptr %5, i64 24
  %6 = load i64, ptr %offset, align 8
  store i64 %6, ptr %call11, align 16
  %fd = getelementptr inbounds nuw i8, ptr %vdev, i64 2696
  %7 = load i32, ptr %fd, align 8
  %fd15 = getelementptr inbounds nuw i8, ptr %call11, i64 8
  store i32 %7, ptr %fd15, align 8
  call void @g_free(ptr noundef %5) #23
  %8 = load ptr, ptr %vga, align 8
  %offset17 = getelementptr inbounds nuw i8, ptr %8, i64 288
  store i64 655360, ptr %offset17, align 16
  %9 = load ptr, ptr %vga, align 8
  %nr = getelementptr inbounds nuw i8, ptr %9, i64 296
  store i32 0, ptr %nr, align 8
  %10 = load ptr, ptr %vga, align 8
  %quirks = getelementptr inbounds nuw i8, ptr %10, i64 304
  store ptr null, ptr %quirks, align 16
  %11 = load ptr, ptr %vga, align 8
  %region25 = getelementptr inbounds nuw i8, ptr %11, i64 16
  call void @memory_region_init_io(ptr noundef nonnull %region25, ptr noundef nonnull %vdev, ptr noundef nonnull @vfio_vga_ops, ptr noundef nonnull %region25, ptr noundef nonnull @.str.15, i64 noundef 131072) #23
  %12 = load ptr, ptr %vga, align 8
  %offset33 = getelementptr i8, ptr %12, i64 592
  store i64 944, ptr %offset33, align 16
  %13 = load ptr, ptr %vga, align 8
  %nr37 = getelementptr i8, ptr %13, i64 600
  store i32 1, ptr %nr37, align 8
  %14 = load ptr, ptr %vga, align 8
  %quirks42 = getelementptr i8, ptr %14, i64 608
  store ptr null, ptr %quirks42, align 16
  %15 = load ptr, ptr %vga, align 8
  %arrayidx47 = getelementptr i8, ptr %15, i64 320
  call void @memory_region_init_io(ptr noundef %arrayidx47, ptr noundef nonnull %vdev, ptr noundef nonnull @vfio_vga_ops, ptr noundef %arrayidx47, ptr noundef nonnull @.str.16, i64 noundef 12) #23
  %16 = load ptr, ptr %vga, align 8
  %offset55 = getelementptr i8, ptr %16, i64 896
  store i64 960, ptr %offset55, align 16
  %17 = load ptr, ptr %vga, align 8
  %nr59 = getelementptr i8, ptr %17, i64 904
  store i32 2, ptr %nr59, align 8
  %18 = load ptr, ptr %vga, align 8
  %quirks64 = getelementptr i8, ptr %18, i64 912
  store ptr null, ptr %quirks64, align 16
  %19 = load ptr, ptr %vga, align 8
  %arrayidx69 = getelementptr i8, ptr %19, i64 624
  call void @memory_region_init_io(ptr noundef %arrayidx69, ptr noundef nonnull %vdev, ptr noundef nonnull @vfio_vga_ops, ptr noundef %arrayidx69, ptr noundef nonnull @.str.17, i64 noundef 32) #23
  %20 = load ptr, ptr %vga, align 8
  %region75 = getelementptr inbounds nuw i8, ptr %20, i64 16
  %arrayidx80 = getelementptr i8, ptr %20, i64 320
  %arrayidx84 = getelementptr i8, ptr %20, i64 624
  call void @pci_register_vga(ptr noundef nonnull %vdev, ptr noundef nonnull %region75, ptr noundef %arrayidx80, ptr noundef %arrayidx84) #23
  br label %return

return:                                           ; preds = %if.end10, %if.then7, %if.then
  %retval.0 = phi i32 [ %call, %if.then ], [ -22, %if.then7 ], [ 0, %if.end10 ]
  ret i32 %retval.0
}